; Function Attrs: mustprogress uwtable
define internal void @_ZN7rocksdb12_GLOBAL__N_123ReadaheadSequentialFile14PositionedReadEmmRKNS_9IOOptionsEPNS_5SliceEPcPNS_14IODebugContextE(ptr dead_on_unwind noalias writable sret(%"class.rocksdb::IOStatus") align 8 %0, ptr noundef nonnull readonly align 8 captures(none) dereferenceable(160) %1, i64 noundef %2, i64 noundef %3, ptr noundef nonnull align 8 dereferenceable(84) %4, ptr noundef %5, ptr noundef %6, ptr noundef %7) unnamed_addr #0 align 2 {
  %9 = getelementptr inbounds nuw i8, ptr %1, i64 8
  %10 = load ptr, ptr %9, align 8, !tbaa !47
  %11 = load ptr, ptr %10, align 8, !tbaa !15
  %12 = getelementptr inbounds nuw i8, ptr %11, i64 56
  %13 = load ptr, ptr %12, align 8
  tail call void %13(ptr dead_on_unwind writable sret(%"class.rocksdb::IOStatus") align 8 %0, ptr noundef nonnull align 8 dereferenceable(8) %10, i64 noundef %2, i64 noundef %3, ptr noundef nonnull align 8 dereferenceable(84) %4, ptr noundef %5, ptr noundef %6, ptr noundef %7)
  ret void
}